; Function Attrs: nounwind uwtable
define zeroext i1 @duckdb_je_extent_commit_zero(ptr noundef %0, ptr noundef readonly captures(none) %1, ptr noundef captures(none) %2, i1 noundef zeroext %3, i1 noundef zeroext %4, i1 noundef zeroext %5) local_unnamed_addr #1 {
tsdn_witness_tsdp_get.exit:
  br i1 %3, label %6, label %12

6:                                                ; preds = %tsdn_witness_tsdp_get.exit
  %.val20 = load i64, ptr %2, align 8, !tbaa !42
  %7 = and i64 %.val20, 8192
  %.not21 = icmp eq i64 %7, 0
  br i1 %.not21, label %8, label %12

8:                                                ; preds = %6
  %9 = getelementptr i8, ptr %2, i64 16
  %.val17 = load i64, ptr %9, align 8, !tbaa !35
  %10 = and i64 %.val17, -4096
  %11 = tail call fastcc zeroext i1 @extent_commit_impl(ptr noundef %0, ptr noundef %1, ptr noundef nonnull %2, i64 noundef 0, i64 noundef %10)
  %.not = xor i1 %4, true
  %brmerge = or i1 %11, %.not
  br i1 %brmerge, label %ehooks_zero.exit, label %13

12:                                               ; preds = %6, %tsdn_witness_tsdp_get.exit
  br i1 %4, label %13, label %ehooks_zero.exit

13:                                               ; preds = %8, %12
  %.val19 = load i64, ptr %2, align 8, !tbaa !42
  %14 = and i64 %.val19, 32768
  %.not22 = icmp eq i64 %14, 0
  br i1 %.not22, label %15, label %ehooks_zero.exit

15:                                               ; preds = %13
  %16 = getelementptr i8, ptr %2, i64 8
  %.val18 = load ptr, ptr %16, align 8, !tbaa !39
  %17 = ptrtoint ptr %.val18 to i64
  %18 = and i64 %17, 4095
  %19 = sub nsw i64 0, %18
  %20 = getelementptr inbounds i8, ptr %.val18, i64 %19
  %21 = getelementptr i8, ptr %2, i64 16
  %.val = load i64, ptr %21, align 8, !tbaa !35
  %22 = and i64 %.val, -4096
  %23 = getelementptr inbounds nuw i8, ptr %1, i64 8
  %24 = load atomic i64, ptr %23 acquire, align 8
  %25 = icmp eq i64 %24, ptrtoint (ptr @duckdb_je_ehooks_default_extent_hooks to i64)
  br i1 %25, label %26, label %27

26:                                               ; preds = %15
  tail call void @duckdb_je_ehooks_default_zero_impl(ptr noundef %20, i64 noundef range(i64 0, -4095) %22) #9
  br label %ehooks_zero.exit

27:                                               ; preds = %15
  tail call void @llvm.memset.p0.i64(ptr align 1 %20, i8 0, i64 range(i64 0, -4095) %22, i1 false)
  br label %ehooks_zero.exit

ehooks_zero.exit:                                 ; preds = %27, %26, %8, %12, %13
  %.0 = phi i1 [ %11, %8 ], [ false, %13 ], [ false, %12 ], [ false, %26 ], [ false, %27 ]
  ret i1 %.0
}